target datalayout = "e-m:e-p270:32:32-p271:32:32-p272:64:64-i64:64-i128:128-f80:128-n8:16:32:64-S128"
target triple = "x86_64-pc-linux-gnu"

%"class.icu_77::BytesTrie" = type <{ ptr, ptr, ptr, i32, [4 x i8] }>

; Function Attrs: inlinehint mustprogress uwtable
define linkonce_odr noundef i32 @_ZNK6icu_779BytesTrie8getValueEv(ptr noundef nonnull align 8 dereferenceable(28) %0) #2 comdat align 2 {
  %2 = alloca ptr, align 8
  %3 = alloca ptr, align 8
  %4 = alloca i32, align 4
  store ptr %0, ptr %2, align 8, !tbaa !20
  %5 = load ptr, ptr %2, align 8
  call void @llvm.lifetime.start.p0(i64 8, ptr %3) #7
  %6 = getelementptr inbounds nuw %"class.icu_77::BytesTrie", ptr %5, i32 0, i32 2
  %7 = load ptr, ptr %6, align 8, !tbaa !29
  store ptr %7, ptr %3, align 8, !tbaa !3
  call void @llvm.lifetime.start.p0(i64 4, ptr %4) #7
  %8 = load ptr, ptr %3, align 8, !tbaa !3
  %9 = getelementptr inbounds nuw i8, ptr %8, i32 1
  store ptr %9, ptr %3, align 8, !tbaa !3
  %10 = load i8, ptr %8, align 1, !tbaa !12
  %11 = zext i8 %10 to i32
  store i32 %11, ptr %4, align 4, !tbaa !8
  %12 = load ptr, ptr %3, align 8, !tbaa !3
  %13 = load i32, ptr %4, align 4, !tbaa !8
  %14 = ashr i32 %13, 1
  %15 = call noundef i32 @_ZN6icu_779BytesTrie9readValueEPKhi(ptr noundef %12, i32 noundef %14)
  call void @llvm.lifetime.end.p0(i64 4, ptr %4) #7
  call void @llvm.lifetime.end.p0(i64 8, ptr %3) #7
  ret i32 %15
}

; Function Attrs: mustprogress uwtable
define noundef signext i8 @_ZN6icu_7712PropNameData12containsNameERNS_9BytesTrieEPKc(ptr noundef nonnull align 8 dereferenceable(28) %0, ptr noundef %1) #0 align 2 {
  %3 = alloca i8, align 1
  %4 = alloca ptr, align 8
  %5 = alloca ptr, align 8
  %6 = alloca i32, align 4
  %7 = alloca i8, align 1
  %8 = alloca i32, align 4
  store ptr %0, ptr %4, align 8, !tbaa !20
  store ptr %1, ptr %5, align 8, !tbaa !3
  %9 = load ptr, ptr %5, align 8, !tbaa !3
  %10 = icmp eq ptr %9, null
  br i1 %10, label %11, label %12

11:                                               ; preds = %2
  store i8 0, ptr %3, align 1
  br label %57

12:                                               ; preds = %2
  call void @llvm.lifetime.start.p0(i64 4, ptr %6) #7
  store i32 1, ptr %6, align 4, !tbaa !22
  call void @llvm.lifetime.start.p0(i64 1, ptr %7) #7
  br label %13

13:                                               ; preds = %47, %41, %12
  %14 = load ptr, ptr %5, align 8, !tbaa !3
  %15 = getelementptr inbounds nuw i8, ptr %14, i32 1
  store ptr %15, ptr %5, align 8, !tbaa !3
  %16 = load i8, ptr %14, align 1, !tbaa !12
  store i8 %16, ptr %7, align 1, !tbaa !12
  %17 = sext i8 %16 to i32
  %18 = icmp ne i32 %17, 0
  br i1 %18, label %19, label %52

19:                                               ; preds = %13
  %20 = load i8, ptr %7, align 1, !tbaa !12
  %21 = call signext i8 @uprv_asciitolower_77(i8 noundef signext %20)
  store i8 %21, ptr %7, align 1, !tbaa !12
  %22 = load i8, ptr %7, align 1, !tbaa !12
  %23 = sext i8 %22 to i32
  %24 = icmp eq i32 %23, 45
  br i1 %24, label %41, label %25

25:                                               ; preds = %19
  %26 = load i8, ptr %7, align 1, !tbaa !12
  %27 = sext i8 %26 to i32
  %28 = icmp eq i32 %27, 95
  br i1 %28, label %41, label %29

29:                                               ; preds = %25
  %30 = load i8, ptr %7, align 1, !tbaa !12
  %31 = sext i8 %30 to i32
  %32 = icmp eq i32 %31, 32
  br i1 %32, label %41, label %33

33:                                               ; preds = %29
  %34 = load i8, ptr %7, align 1, !tbaa !12
  %35 = sext i8 %34 to i32
  %36 = icmp sle i32 9, %35
  br i1 %36, label %37, label %42

37:                                               ; preds = %33
  %38 = load i8, ptr %7, align 1, !tbaa !12
  %39 = sext i8 %38 to i32
  %40 = icmp sle i32 %39, 13
  br i1 %40, label %41, label %42

41:                                               ; preds = %37, %29, %25, %19
  br label %13, !llvm.loop !24

42:                                               ; preds = %37, %33
  %43 = load i32, ptr %6, align 4, !tbaa !22
  %44 = and i32 %43, 1
  %45 = icmp ne i32 %44, 0
  br i1 %45, label %47, label %46

46:                                               ; preds = %42
  store i8 0, ptr %3, align 1
  store i32 1, ptr %8, align 4
  br label %56

47:                                               ; preds = %42
  %48 = load ptr, ptr %4, align 8, !tbaa !20
  %49 = load i8, ptr %7, align 1, !tbaa !12
  %50 = zext i8 %49 to i32
  %51 = call noundef i32 @_ZN6icu_779BytesTrie4nextEi(ptr noundef nonnull align 8 dereferenceable(28) %48, i32 noundef %50)
  store i32 %51, ptr %6, align 4, !tbaa !22
  br label %13, !llvm.loop !24

52:                                               ; preds = %13
  %53 = load i32, ptr %6, align 4, !tbaa !22
  %54 = icmp sge i32 %53, 2
  %55 = zext i1 %54 to i8
  store i8 %55, ptr %3, align 1
  store i32 1, ptr %8, align 4
  br label %56

56:                                               ; preds = %52, %46
  call void @llvm.lifetime.end.p0(i64 1, ptr %7) #7
  call void @llvm.lifetime.end.p0(i64 4, ptr %6) #7
  br label %57

57:                                               ; preds = %56, %11
  %58 = load i8, ptr %3, align 1
  ret i8 %58
}

; Function Attrs: mustprogress nounwind uwtable
define linkonce_odr void @_ZN6icu_779BytesTrieC2EPKv(ptr noundef nonnull align 8 dereferenceable(28) %0, ptr noundef %1) unnamed_addr #3 comdat align 2 {
  %3 = alloca ptr, align 8
  %4 = alloca ptr, align 8
  store ptr %0, ptr %3, align 8, !tbaa !20
  store ptr %1, ptr %4, align 8, !tbaa !25
  %5 = load ptr, ptr %3, align 8
  %6 = getelementptr inbounds nuw %"class.icu_77::BytesTrie", ptr %5, i32 0, i32 0
  store ptr null, ptr %6, align 8, !tbaa !26
  %7 = getelementptr inbounds nuw %"class.icu_77::BytesTrie", ptr %5, i32 0, i32 1
  %8 = load ptr, ptr %4, align 8, !tbaa !25
  store ptr %8, ptr %7, align 8, !tbaa !28
  %9 = getelementptr inbounds nuw %"class.icu_77::BytesTrie", ptr %5, i32 0, i32 2
  %10 = getelementptr inbounds nuw %"class.icu_77::BytesTrie", ptr %5, i32 0, i32 1
  %11 = load ptr, ptr %10, align 8, !tbaa !28
  store ptr %11, ptr %9, align 8, !tbaa !29
  %12 = getelementptr inbounds nuw %"class.icu_77::BytesTrie", ptr %5, i32 0, i32 3
  store i32 -1, ptr %12, align 8, !tbaa !30
  ret void
}

; Function Attrs: mustprogress uwtable
define noundef i32 @_ZN6icu_7712PropNameData22getPropertyOrValueEnumEiPKc(i32 noundef %0, ptr noundef %1) #0 align 2 personality ptr @__gxx_personality_v0 {
  %3 = alloca i32, align 4
  %4 = alloca i32, align 4
  %5 = alloca ptr, align 8
  %6 = alloca %"class.icu_77::BytesTrie", align 8
  %7 = alloca ptr, align 8
  %8 = alloca i32, align 4
  %9 = alloca i32, align 4
  store i32 %0, ptr %4, align 4, !tbaa !8
  store ptr %1, ptr %5, align 8, !tbaa !3
  call void @llvm.lifetime.start.p0(i64 32, ptr %6) #7
  %10 = load i32, ptr %4, align 4, !tbaa !8
  %11 = sext i32 %10 to i64
  %12 = getelementptr inbounds i8, ptr @_ZN6icu_7712PropNameData10bytesTriesE, i64 %11
  call void @_ZN6icu_779BytesTrieC2EPKv(ptr noundef nonnull align 8 dereferenceable(28) %6, ptr noundef %12)
  %13 = load ptr, ptr %5, align 8, !tbaa !3
  %14 = invoke noundef signext i8 @_ZN6icu_7712PropNameData12containsNameERNS_9BytesTrieEPKc(ptr noundef nonnull align 8 dereferenceable(28) %6, ptr noundef %13)
          to label %15 unwind label %20

15:                                               ; preds = %2
  %16 = icmp ne i8 %14, 0
  br i1 %16, label %17, label %24

17:                                               ; preds = %15
  %18 = invoke noundef i32 @_ZNK6icu_779BytesTrie8getValueEv(ptr noundef nonnull align 8 dereferenceable(28) %6)
          to label %19 unwind label %20

19:                                               ; preds = %17
  store i32 %18, ptr %3, align 4
  store i32 1, ptr %9, align 4
  br label %25

20:                                               ; preds = %17, %2
  %21 = landingpad { ptr, i32 }
          cleanup
  %22 = extractvalue { ptr, i32 } %21, 0
  store ptr %22, ptr %7, align 8
  %23 = extractvalue { ptr, i32 } %21, 1
  store i32 %23, ptr %8, align 4
  call void @_ZN6icu_779BytesTrieD1Ev(ptr noundef nonnull align 8 dereferenceable(28) %6) #7
  call void @llvm.lifetime.end.p0(i64 32, ptr %6) #7
  br label %27

24:                                               ; preds = %15
  store i32 -1, ptr %3, align 4
  store i32 1, ptr %9, align 4
  br label %25

25:                                               ; preds = %24, %19
  call void @_ZN6icu_779BytesTrieD1Ev(ptr noundef nonnull align 8 dereferenceable(28) %6) #7
  call void @llvm.lifetime.end.p0(i64 32, ptr %6) #7
  %26 = load i32, ptr %3, align 4
  ret i32 %26

27:                                               ; preds = %20
  %28 = load ptr, ptr %7, align 8
  %29 = load i32, ptr %8, align 4
  %30 = insertvalue { ptr, i32 } poison, ptr %28, 0
  %31 = insertvalue { ptr, i32 } %30, i32 %29, 1
  resume { ptr, i32 } %31
}