; Function Attrs: mustprogress uwtable
define noundef i32 @_ZN6icu_7712PropNameData22getPropertyOrValueEnumEiPKc(i32 noundef %0, ptr noundef readonly %1) local_unnamed_addr #0 align 2 personality ptr @__gxx_personality_v0 {
  %3 = alloca %"class.icu_77::BytesTrie", align 8
  call void @llvm.lifetime.start.p0(i64 32, ptr nonnull %3) #8
  %4 = sext i32 %0 to i64
  %5 = getelementptr inbounds i8, ptr @_ZN6icu_7712PropNameData10bytesTriesE, i64 %4
  store ptr null, ptr %3, align 8, !tbaa !17
  %6 = getelementptr inbounds nuw i8, ptr %3, i64 8
  store ptr %5, ptr %6, align 8, !tbaa !21
  %7 = getelementptr inbounds nuw i8, ptr %3, i64 16
  store ptr %5, ptr %7, align 8, !tbaa !22
  %8 = getelementptr inbounds nuw i8, ptr %3, i64 24
  store i32 -1, ptr %8, align 8, !tbaa !23
  %9 = icmp eq ptr %1, null
  br i1 %9, label %_ZNK6icu_779BytesTrie8getValueEv.exit, label %.preheader.i

.preheader.i:                                     ; preds = %2
  %10 = load i8, ptr %1, align 1, !tbaa !3
  %.not2830.i = icmp eq i8 %10, 0
  br i1 %.not2830.i, label %_ZNK6icu_779BytesTrie8getValueEv.exit, label %.lr.ph.i

.lr.ph.i:                                         ; preds = %.preheader.i, %.noexc4
  %11 = phi i8 [ %24, %.noexc4 ], [ %10, %.preheader.i ]
  %.lcssa25.pn.i = phi ptr [ %14, %.noexc4 ], [ %1, %.preheader.i ]
  %.0.ph31.i = phi i32 [ %23, %.noexc4 ], [ 1, %.preheader.i ]
  br label %12

12:                                               ; preds = %18, %.lr.ph.i
  %13 = phi i8 [ %11, %.lr.ph.i ], [ %19, %18 ]
  %.lcssa25.pn.pn.i = phi ptr [ %.lcssa25.pn.i, %.lr.ph.i ], [ %14, %18 ]
  %14 = getelementptr inbounds nuw i8, ptr %.lcssa25.pn.pn.i, i64 1
  %15 = invoke signext i8 @uprv_asciitolower_77(i8 noundef signext %13)
          to label %.noexc unwind label %.loopexit

.noexc:                                           ; preds = %12
  switch i8 %15, label %16 [
    i8 95, label %18
    i8 45, label %18
    i8 32, label %18
  ]

16:                                               ; preds = %.noexc
  %17 = add i8 %15, -9
  %or.cond8.i = icmp ult i8 %17, 5
  br i1 %or.cond8.i, label %18, label %20

18:                                               ; preds = %16, %.noexc, %.noexc, %.noexc
  %19 = load i8, ptr %14, align 1, !tbaa !3
  %.not.i = icmp eq i8 %19, 0
  br i1 %.not.i, label %_ZN6icu_7712PropNameData12containsNameERNS_9BytesTrieEPKc.exit, label %12, !llvm.loop !16

20:                                               ; preds = %16
  %21 = and i32 %.0.ph31.i, 1
  %.not24.i = icmp eq i32 %21, 0
  br i1 %.not24.i, label %_ZNK6icu_779BytesTrie8getValueEv.exit, label %.outer.i

.outer.i:                                         ; preds = %20
  %22 = zext i8 %15 to i32
  %23 = invoke noundef i32 @_ZN6icu_779BytesTrie4nextEi(ptr noundef nonnull align 8 dereferenceable(28) %3, i32 noundef %22)
          to label %.noexc4 unwind label %.loopexit.split-lp.loopexit

.noexc4:                                          ; preds = %.outer.i
  %24 = load i8, ptr %14, align 1, !tbaa !3
  %.not28.i = icmp eq i8 %24, 0
  br i1 %.not28.i, label %_ZN6icu_7712PropNameData12containsNameERNS_9BytesTrieEPKc.exit, label %.lr.ph.i, !llvm.loop !16

_ZN6icu_7712PropNameData12containsNameERNS_9BytesTrieEPKc.exit: ; preds = %.noexc4, %18
  %.0.ph.lcssa27.i = phi i32 [ %.0.ph31.i, %18 ], [ %23, %.noexc4 ]
  %25 = icmp slt i32 %.0.ph.lcssa27.i, 2
  br i1 %25, label %_ZNK6icu_779BytesTrie8getValueEv.exit, label %26

26:                                               ; preds = %_ZN6icu_7712PropNameData12containsNameERNS_9BytesTrieEPKc.exit
  %27 = load ptr, ptr %7, align 8, !tbaa !22
  %28 = getelementptr inbounds nuw i8, ptr %27, i64 1
  %29 = load i8, ptr %27, align 1, !tbaa !3
  %30 = lshr i8 %29, 1
  %31 = zext nneg i8 %30 to i32
  %32 = invoke noundef i32 @_ZN6icu_779BytesTrie9readValueEPKhi(ptr noundef nonnull %28, i32 noundef %31)
          to label %_ZNK6icu_779BytesTrie8getValueEv.exit unwind label %.loopexit.split-lp.loopexit.split-lp

.loopexit:                                        ; preds = %12
  %lpad.loopexit = landingpad { ptr, i32 }
          cleanup
  br label %.loopexit.split-lp

.loopexit.split-lp.loopexit:                      ; preds = %.outer.i
  %lpad.loopexit11 = landingpad { ptr, i32 }
          cleanup
  br label %.loopexit.split-lp

.loopexit.split-lp.loopexit.split-lp:             ; preds = %26
  %lpad.loopexit.split-lp12 = landingpad { ptr, i32 }
          cleanup
  br label %.loopexit.split-lp

.loopexit.split-lp:                               ; preds = %.loopexit.split-lp.loopexit, %.loopexit.split-lp.loopexit.split-lp, %.loopexit
  %lpad.phi = phi { ptr, i32 } [ %lpad.loopexit, %.loopexit ], [ %lpad.loopexit11, %.loopexit.split-lp.loopexit ], [ %lpad.loopexit.split-lp12, %.loopexit.split-lp.loopexit.split-lp ]
  call void @_ZN6icu_779BytesTrieD1Ev(ptr noundef nonnull align 8 dereferenceable(28) %3) #8
  call void @llvm.lifetime.end.p0(i64 32, ptr nonnull %3) #8
  resume { ptr, i32 } %lpad.phi

_ZNK6icu_779BytesTrie8getValueEv.exit:            ; preds = %20, %2, %.preheader.i, %26, %_ZN6icu_7712PropNameData12containsNameERNS_9BytesTrieEPKc.exit
  %.0 = phi i32 [ -1, %_ZN6icu_7712PropNameData12containsNameERNS_9BytesTrieEPKc.exit ], [ %32, %26 ], [ -1, %.preheader.i ], [ -1, %2 ], [ -1, %20 ]
  call void @_ZN6icu_779BytesTrieD1Ev(ptr noundef nonnull align 8 dereferenceable(28) %3) #8
  call void @llvm.lifetime.end.p0(i64 32, ptr nonnull %3) #8
  ret i32 %.0
}